target datalayout = "e-m:e-p270:32:32-p271:32:32-p272:64:64-i64:64-i128:128-f80:128-n8:16:32:64-S128"
target triple = "x86_64-pc-linux-gnu"

%struct.Sfm_Par_t_ = type { i32, i32, i32, i32, i32, i32, i32, i32, i32, i32, i32, i32, i32, i32, i32, i32, i32, i32, i32, i32, i32, i32, i32, i32, i32, i32, i32, i32, i32, i32, i32 }
%struct.Sfm_Dec_t_ = type { ptr, ptr, ptr, ptr, ptr, %struct.Vec_Int_t_, %struct.Vec_Wrd_t_, %struct.Vec_Wec_t_, %struct.Vec_Ptr_t_, i32, i32, i32, i32, [4 x i32], [4 x i32], i32, i32, i32, i32, i32, i32, i32, i32, i32, ptr, i64, %struct.Vec_Int_t_, %struct.Vec_Int_t_, %struct.Vec_Wec_t_, %struct.Vec_Int_t_, %struct.Vec_Int_t_, %struct.Vec_Int_t_, %struct.Vec_Int_t_, %struct.Vec_Wrd_t_, %struct.Vec_Wrd_t_, %struct.Vec_Ptr_t_, %struct.Vec_Ptr_t_, ptr, %struct.Vec_Wec_t_, [2 x %struct.Vec_Int_t_], [2 x %struct.Vec_Wrd_t_], [2 x i32], [2 x i32], i32, i32, [8 x [4 x i64]], [8 x ptr], [8 x ptr], %struct.Vec_Int_t_, %struct.Vec_Int_t_, %struct.Vec_Int_t_, %struct.Vec_Int_t_, %struct.Vec_Int_t_, %struct.Vec_Int_t_, %struct.Vec_Int_t_, [4 x i64], i32, i64, i64, i64, i64, i64, i64, i64, i64, i64, i64, i64, i32, i32, i32, i32, i32, i32, i32, i32, i32, i32, i32, i32, i32, i32, i32, i32, i32, i32, i32, i32, i32, i64, i64, [9 x i32], [9 x i32] }
%struct.Vec_Wrd_t_ = type { i32, i32, ptr }
%struct.Vec_Ptr_t_ = type { i32, i32, ptr }
%struct.Vec_Wec_t_ = type { i32, i32, ptr }
%struct.Vec_Int_t_ = type { i32, i32, ptr }
%struct.Abc_Ntk_t_ = type { i32, i32, ptr, ptr, ptr, ptr, ptr, ptr, ptr, ptr, ptr, ptr, ptr, [11 x i32], i32, i32, i32, i32, ptr, i32, ptr, ptr, i32, i32, i32, double, i32, %struct.Vec_Int_t_, ptr, ptr, ptr, ptr, ptr, float, i32, ptr, ptr, ptr, ptr, ptr, ptr, ptr, ptr, ptr, ptr, ptr, ptr, ptr, ptr, ptr, ptr, ptr, ptr, ptr, ptr, ptr, ptr }
%struct.Abc_Obj_t_ = type { ptr, ptr, i32, i32, %struct.Vec_Int_t_, %struct.Vec_Int_t_, %union.anon, %union.anon.0 }
%union.anon = type { ptr }
%union.anon.0 = type { ptr }

; Function Attrs: inlinehint nounwind uwtable
define internal ptr @Vec_PtrEntry(ptr noundef %0, i32 noundef %1) #5 {
  %3 = alloca ptr, align 8
  %4 = alloca i32, align 4
  store ptr %0, ptr %3, align 8, !tbaa !96
  store i32 %1, ptr %4, align 4, !tbaa !79
  %5 = load ptr, ptr %3, align 8, !tbaa !96
  %6 = getelementptr inbounds nuw %struct.Vec_Ptr_t_, ptr %5, i32 0, i32 2
  %7 = load ptr, ptr %6, align 8, !tbaa !113
  %8 = load i32, ptr %4, align 4, !tbaa !79
  %9 = sext i32 %8 to i64
  %10 = getelementptr inbounds ptr, ptr %7, i64 %9
  %11 = load ptr, ptr %10, align 8, !tbaa !133
  ret ptr %11
}

; Function Attrs: inlinehint nounwind uwtable
define internal i32 @Abc_ObjIsNode(ptr noundef %0) #5 {
  %2 = alloca ptr, align 8
  store ptr %0, ptr %2, align 8, !tbaa !92
  %3 = load ptr, ptr %2, align 8, !tbaa !92
  %4 = getelementptr inbounds nuw %struct.Abc_Obj_t_, ptr %3, i32 0, i32 3
  %5 = load i32, ptr %4, align 4
  %6 = and i32 %5, 15
  %7 = icmp eq i32 %6, 7
  %8 = zext i1 %7 to i32
  ret i32 %8
}

; Function Attrs: inlinehint nounwind uwtable
define internal ptr @Abc_NtkObj(ptr noundef %0, i32 noundef %1) #5 {
  %3 = alloca ptr, align 8
  %4 = alloca i32, align 4
  store ptr %0, ptr %3, align 8, !tbaa !31
  store i32 %1, ptr %4, align 4, !tbaa !79
  %5 = load ptr, ptr %3, align 8, !tbaa !31
  %6 = getelementptr inbounds nuw %struct.Abc_Ntk_t_, ptr %5, i32 0, i32 5
  %7 = load ptr, ptr %6, align 8, !tbaa !91
  %8 = load i32, ptr %4, align 4, !tbaa !79
  %9 = call ptr @Vec_PtrEntry(ptr noundef %7, i32 noundef %8)
  ret ptr %9
}

; Function Attrs: inlinehint nounwind uwtable
define internal i32 @Vec_PtrSize(ptr noundef %0) #5 {
  %2 = alloca ptr, align 8
  store ptr %0, ptr %2, align 8, !tbaa !96
  %3 = load ptr, ptr %2, align 8, !tbaa !96
  %4 = getelementptr inbounds nuw %struct.Vec_Ptr_t_, ptr %3, i32 0, i32 1
  %5 = load i32, ptr %4, align 4, !tbaa !97
  ret i32 %5
}

; Function Attrs: inlinehint nounwind uwtable
define internal i32 @Abc_NtkObjNumMax(ptr noundef %0) #5 {
  %2 = alloca ptr, align 8
  store ptr %0, ptr %2, align 8, !tbaa !31
  %3 = load ptr, ptr %2, align 8, !tbaa !31
  %4 = getelementptr inbounds nuw %struct.Abc_Ntk_t_, ptr %3, i32 0, i32 5
  %5 = load ptr, ptr %4, align 8, !tbaa !91
  %6 = call i32 @Vec_PtrSize(ptr noundef %5)
  ret i32 %6
}

; Function Attrs: nounwind uwtable
define void @Abc_NtkAreaOpt(ptr noundef %0) #0 {
  %2 = alloca ptr, align 8
  %3 = alloca ptr, align 8
  %4 = alloca i32, align 4
  %5 = alloca i32, align 4
  store ptr %0, ptr %2, align 8, !tbaa !33
  call void @llvm.lifetime.start.p0(i64 8, ptr %3) #12
  call void @llvm.lifetime.start.p0(i64 4, ptr %4) #12
  call void @llvm.lifetime.start.p0(i64 4, ptr %5) #12
  %6 = load ptr, ptr %2, align 8, !tbaa !33
  %7 = getelementptr inbounds nuw %struct.Sfm_Dec_t_, ptr %6, i32 0, i32 4
  %8 = load ptr, ptr %7, align 8, !tbaa !51
  %9 = call i32 @Abc_NtkObjNumMax(ptr noundef %8)
  store i32 %9, ptr %5, align 4, !tbaa !79
  store i32 0, ptr %4, align 4, !tbaa !79
  br label %10

10:                                               ; preds = %60, %1
  %11 = load i32, ptr %4, align 4, !tbaa !79
  %12 = load ptr, ptr %2, align 8, !tbaa !33
  %13 = getelementptr inbounds nuw %struct.Sfm_Dec_t_, ptr %12, i32 0, i32 4
  %14 = load ptr, ptr %13, align 8, !tbaa !51
  %15 = getelementptr inbounds nuw %struct.Abc_Ntk_t_, ptr %14, i32 0, i32 5
  %16 = load ptr, ptr %15, align 8, !tbaa !91
  %17 = call i32 @Vec_PtrSize(ptr noundef %16)
  %18 = icmp slt i32 %11, %17
  br i1 %18, label %19, label %25

19:                                               ; preds = %10
  %20 = load ptr, ptr %2, align 8, !tbaa !33
  %21 = getelementptr inbounds nuw %struct.Sfm_Dec_t_, ptr %20, i32 0, i32 4
  %22 = load ptr, ptr %21, align 8, !tbaa !51
  %23 = load i32, ptr %4, align 4, !tbaa !79
  %24 = call ptr @Abc_NtkObj(ptr noundef %22, i32 noundef %23)
  store ptr %24, ptr %3, align 8, !tbaa !92
  br label %25

25:                                               ; preds = %19, %10
  %26 = phi i1 [ false, %10 ], [ true, %19 ]
  br i1 %26, label %27, label %63

27:                                               ; preds = %25
  %28 = load ptr, ptr %3, align 8, !tbaa !92
  %29 = icmp eq ptr %28, null
  br i1 %29, label %34, label %30

30:                                               ; preds = %27
  %31 = load ptr, ptr %3, align 8, !tbaa !92
  %32 = call i32 @Abc_ObjIsNode(ptr noundef %31)
  %33 = icmp ne i32 %32, 0
  br i1 %33, label %35, label %34

34:                                               ; preds = %30, %27
  br label %59

35:                                               ; preds = %30
  %36 = load i32, ptr %4, align 4, !tbaa !79
  %37 = load i32, ptr %5, align 4, !tbaa !79
  %38 = icmp sge i32 %36, %37
  br i1 %38, label %54, label %39

39:                                               ; preds = %35
  %40 = load ptr, ptr %2, align 8, !tbaa !33
  %41 = getelementptr inbounds nuw %struct.Sfm_Dec_t_, ptr %40, i32 0, i32 0
  %42 = load ptr, ptr %41, align 8, !tbaa !50
  %43 = getelementptr inbounds nuw %struct.Sfm_Par_t_, ptr %42, i32 0, i32 11
  %44 = load i32, ptr %43, align 4, !tbaa !317
  %45 = icmp ne i32 %44, 0
  br i1 %45, label %46, label %55

46:                                               ; preds = %39
  %47 = load i32, ptr %4, align 4, !tbaa !79
  %48 = load ptr, ptr %2, align 8, !tbaa !33
  %49 = getelementptr inbounds nuw %struct.Sfm_Dec_t_, ptr %48, i32 0, i32 0
  %50 = load ptr, ptr %49, align 8, !tbaa !50
  %51 = getelementptr inbounds nuw %struct.Sfm_Par_t_, ptr %50, i32 0, i32 11
  %52 = load i32, ptr %51, align 4, !tbaa !317
  %53 = icmp sgt i32 %47, %52
  br i1 %53, label %54, label %55

54:                                               ; preds = %46, %35
  br label %63

55:                                               ; preds = %46, %39
  %56 = load ptr, ptr %2, align 8, !tbaa !33
  %57 = load i32, ptr %4, align 4, !tbaa !79
  %58 = call ptr @Abc_NtkAreaOptOne(ptr noundef %56, i32 noundef %57)
  br label %59

59:                                               ; preds = %55, %34
  br label %60

60:                                               ; preds = %59
  %61 = load i32, ptr %4, align 4, !tbaa !79
  %62 = add nsw i32 %61, 1
  store i32 %62, ptr %4, align 4, !tbaa !79
  br label %10, !llvm.loop !318

63:                                               ; preds = %54, %25
  call void @llvm.lifetime.end.p0(i64 4, ptr %5) #12
  call void @llvm.lifetime.end.p0(i64 4, ptr %4) #12
  call void @llvm.lifetime.end.p0(i64 8, ptr %3) #12
  ret void
}