; Function Attrs: nounwind uwtable
define void @Abc_NtkAreaOpt(ptr noundef %0) local_unnamed_addr #2 {
  %2 = getelementptr inbounds nuw i8, ptr %0, i64 32
  %3 = load ptr, ptr %2, align 8, !tbaa !41
  %4 = getelementptr i8, ptr %3, i64 32
  %.val20 = load ptr, ptr %4, align 8, !tbaa !78
  %5 = getelementptr i8, ptr %.val20, i64 4
  %.val20.val = load i32, ptr %5, align 4, !tbaa !79
  %6 = icmp sgt i32 %.val20.val, 0
  br i1 %6, label %.lr.ph.preheader, label %.critedge

.lr.ph.preheader:                                 ; preds = %1
  %7 = zext nneg i32 %.val20.val to i64
  br label %.lr.ph

.lr.ph:                                           ; preds = %.lr.ph.preheader, %27
  %8 = phi ptr [ %3, %.lr.ph.preheader ], [ %28, %27 ]
  %indvars.iv = phi i64 [ 0, %.lr.ph.preheader ], [ %indvars.iv.next, %27 ]
  %9 = phi ptr [ %.val20, %.lr.ph.preheader ], [ %30, %27 ]
  %10 = getelementptr i8, ptr %9, i64 8
  %.val18.val = load ptr, ptr %10, align 8, !tbaa !80
  %11 = getelementptr inbounds nuw ptr, ptr %.val18.val, i64 %indvars.iv
  %12 = load ptr, ptr %11, align 8, !tbaa !81
  %13 = icmp eq ptr %12, null
  br i1 %13, label %27, label %14

14:                                               ; preds = %.lr.ph
  %15 = getelementptr i8, ptr %12, i64 20
  %.val19 = load i32, ptr %15, align 4
  %16 = and i32 %.val19, 15
  %.not = icmp eq i32 %16, 7
  br i1 %.not, label %17, label %27

17:                                               ; preds = %14
  %.not16 = icmp samesign ult i64 %indvars.iv, %7
  br i1 %.not16, label %18, label %.critedge

18:                                               ; preds = %17
  %19 = load ptr, ptr %0, align 8, !tbaa !40
  %20 = getelementptr inbounds nuw i8, ptr %19, i64 44
  %21 = load i32, ptr %20, align 4, !tbaa !305
  %.not17 = icmp ne i32 %21, 0
  %22 = sext i32 %21 to i64
  %23 = icmp sgt i64 %indvars.iv, %22
  %or.cond = and i1 %.not17, %23
  br i1 %or.cond, label %.critedge, label %24

24:                                               ; preds = %18
  %25 = trunc nuw nsw i64 %indvars.iv to i32
  %26 = tail call ptr @Abc_NtkAreaOptOne(ptr noundef nonnull %0, i32 noundef %25)
  %.pre = load ptr, ptr %2, align 8, !tbaa !41
  br label %27

27:                                               ; preds = %24, %14, %.lr.ph
  %28 = phi ptr [ %.pre, %24 ], [ %8, %14 ], [ %8, %.lr.ph ]
  %indvars.iv.next = add nuw nsw i64 %indvars.iv, 1
  %29 = getelementptr inbounds nuw i8, ptr %28, i64 32
  %30 = load ptr, ptr %29, align 8, !tbaa !78
  %31 = getelementptr i8, ptr %30, i64 4
  %.val = load i32, ptr %31, align 4, !tbaa !79
  %32 = sext i32 %.val to i64
  %33 = icmp slt i64 %indvars.iv.next, %32
  br i1 %33, label %.lr.ph, label %.critedge, !llvm.loop !306

.critedge:                                        ; preds = %17, %27, %18, %1
  ret void
}